target datalayout = "e-m:e-p270:32:32-p271:32:32-p272:64:64-i64:64-i128:128-f80:128-n8:16:32:64-S128"
target triple = "x86_64-pc-linux-gnu"

%struct.ASN1_ITEM_st = type { i8, i64, ptr, i64, ptr, i64, ptr }
%struct.ASN1_PRIMITIVE_FUNCS_st = type { ptr, i64, ptr, ptr, ptr, ptr, ptr, ptr }
%struct.asn1_type_st = type { i32, %union.anon }
%union.anon = type { ptr }
%struct.asn1_string_st = type { i32, i32, ptr, i64 }

@.str = private unnamed_addr constant [126 x i8] c"generated/home/dtcxzyw/WorkSpace/Projects/compilers/llvm-opt-benchmark/bench/libquic/libquic/boringssl/crypto/asn1/tasn_dec.c\00", align 1

; Function Attrs: nounwind uwtable
define hidden i32 @asn1_ex_c2i(ptr noundef %0, ptr noundef %1, i32 noundef %2, i32 noundef %3, ptr noundef %4, ptr noundef %5) #0 {
  %7 = alloca i32, align 4
  %8 = alloca ptr, align 8
  %9 = alloca ptr, align 8
  %10 = alloca i32, align 4
  %11 = alloca i32, align 4
  %12 = alloca ptr, align 8
  %13 = alloca ptr, align 8
  %14 = alloca ptr, align 8
  %15 = alloca ptr, align 8
  %16 = alloca ptr, align 8
  %17 = alloca i32, align 4
  %18 = alloca ptr, align 8
  %19 = alloca ptr, align 8
  %20 = alloca i32, align 4
  %21 = alloca ptr, align 8
  store ptr %0, ptr %8, align 8, !tbaa !12
  store ptr %1, ptr %9, align 8, !tbaa !33
  store i32 %2, ptr %10, align 4, !tbaa !6
  store i32 %3, ptr %11, align 4, !tbaa !6
  store ptr %4, ptr %12, align 8, !tbaa !33
  store ptr %5, ptr %13, align 8, !tbaa !17
  call void @llvm.lifetime.start.p0(i64 8, ptr %14) #6
  store ptr null, ptr %14, align 8, !tbaa !12
  call void @llvm.lifetime.start.p0(i64 8, ptr %15) #6
  call void @llvm.lifetime.start.p0(i64 8, ptr %16) #6
  store ptr null, ptr %16, align 8, !tbaa !72
  call void @llvm.lifetime.start.p0(i64 4, ptr %17) #6
  store i32 0, ptr %17, align 4, !tbaa !6
  call void @llvm.lifetime.start.p0(i64 8, ptr %18) #6
  call void @llvm.lifetime.start.p0(i64 8, ptr %19) #6
  %22 = load ptr, ptr %13, align 8, !tbaa !17
  %23 = getelementptr inbounds nuw %struct.ASN1_ITEM_st, ptr %22, i32 0, i32 4
  %24 = load ptr, ptr %23, align 8, !tbaa !28
  store ptr %24, ptr %18, align 8, !tbaa !74
  %25 = load ptr, ptr %18, align 8, !tbaa !74
  %26 = icmp ne ptr %25, null
  br i1 %26, label %27, label %43

27:                                               ; preds = %6
  %28 = load ptr, ptr %18, align 8, !tbaa !74
  %29 = getelementptr inbounds nuw %struct.ASN1_PRIMITIVE_FUNCS_st, ptr %28, i32 0, i32 5
  %30 = load ptr, ptr %29, align 8, !tbaa !76
  %31 = icmp ne ptr %30, null
  br i1 %31, label %32, label %43

32:                                               ; preds = %27
  %33 = load ptr, ptr %18, align 8, !tbaa !74
  %34 = getelementptr inbounds nuw %struct.ASN1_PRIMITIVE_FUNCS_st, ptr %33, i32 0, i32 5
  %35 = load ptr, ptr %34, align 8, !tbaa !76
  %36 = load ptr, ptr %8, align 8, !tbaa !12
  %37 = load ptr, ptr %9, align 8, !tbaa !33
  %38 = load i32, ptr %10, align 4, !tbaa !6
  %39 = load i32, ptr %11, align 4, !tbaa !6
  %40 = load ptr, ptr %12, align 8, !tbaa !33
  %41 = load ptr, ptr %13, align 8, !tbaa !17
  %42 = call i32 %35(ptr noundef %36, ptr noundef %37, i32 noundef %38, i32 noundef %39, ptr noundef %40, ptr noundef %41)
  store i32 %42, ptr %7, align 4
  store i32 1, ptr %20, align 4
  br label %220

43:                                               ; preds = %27, %6
  %44 = load ptr, ptr %13, align 8, !tbaa !17
  %45 = getelementptr inbounds nuw %struct.ASN1_ITEM_st, ptr %44, i32 0, i32 1
  %46 = load i64, ptr %45, align 8, !tbaa !39
  %47 = icmp eq i64 %46, -4
  br i1 %47, label %48, label %76

48:                                               ; preds = %43
  %49 = load ptr, ptr %8, align 8, !tbaa !12
  %50 = load ptr, ptr %49, align 8, !tbaa !19
  %51 = icmp ne ptr %50, null
  br i1 %51, label %60, label %52

52:                                               ; preds = %48
  %53 = call ptr @ASN1_TYPE_new()
  store ptr %53, ptr %16, align 8, !tbaa !72
  %54 = load ptr, ptr %16, align 8, !tbaa !72
  %55 = icmp eq ptr %54, null
  br i1 %55, label %56, label %57

56:                                               ; preds = %52
  br label %208

57:                                               ; preds = %52
  %58 = load ptr, ptr %16, align 8, !tbaa !72
  %59 = load ptr, ptr %8, align 8, !tbaa !12
  store ptr %58, ptr %59, align 8, !tbaa !19
  br label %63

60:                                               ; preds = %48
  %61 = load ptr, ptr %8, align 8, !tbaa !12
  %62 = load ptr, ptr %61, align 8, !tbaa !19
  store ptr %62, ptr %16, align 8, !tbaa !72
  br label %63

63:                                               ; preds = %60, %57
  %64 = load i32, ptr %11, align 4, !tbaa !6
  %65 = load ptr, ptr %16, align 8, !tbaa !72
  %66 = getelementptr inbounds nuw %struct.asn1_type_st, ptr %65, i32 0, i32 0
  %67 = load i32, ptr %66, align 8, !tbaa !78
  %68 = icmp ne i32 %64, %67
  br i1 %68, label %69, label %72

69:                                               ; preds = %63
  %70 = load ptr, ptr %16, align 8, !tbaa !72
  %71 = load i32, ptr %11, align 4, !tbaa !6
  call void @ASN1_TYPE_set(ptr noundef %70, i32 noundef %71, ptr noundef null)
  br label %72

72:                                               ; preds = %69, %63
  %73 = load ptr, ptr %8, align 8, !tbaa !12
  store ptr %73, ptr %14, align 8, !tbaa !12
  %74 = load ptr, ptr %16, align 8, !tbaa !72
  %75 = getelementptr inbounds nuw %struct.asn1_type_st, ptr %74, i32 0, i32 1
  store ptr %75, ptr %8, align 8, !tbaa !12
  br label %76

76:                                               ; preds = %72, %43
  %77 = load i32, ptr %11, align 4, !tbaa !6
  switch i32 %77, label %131 [
    i32 6, label %78
    i32 5, label %86
    i32 1, label %92
    i32 3, label %103
    i32 2, label %111
    i32 258, label %111
    i32 10, label %111
    i32 266, label %111
    i32 4, label %130
    i32 18, label %130
    i32 19, label %130
    i32 20, label %130
    i32 21, label %130
    i32 22, label %130
    i32 23, label %130
    i32 24, label %130
    i32 25, label %130
    i32 26, label %130
    i32 27, label %130
    i32 28, label %130
    i32 30, label %130
    i32 12, label %130
    i32 -3, label %130
    i32 17, label %130
    i32 16, label %130
  ]

78:                                               ; preds = %76
  %79 = load ptr, ptr %8, align 8, !tbaa !12
  %80 = load i32, ptr %10, align 4, !tbaa !6
  %81 = sext i32 %80 to i64
  %82 = call ptr @c2i_ASN1_OBJECT(ptr noundef %79, ptr noundef %9, i64 noundef %81)
  %83 = icmp ne ptr %82, null
  br i1 %83, label %85, label %84

84:                                               ; preds = %78
  br label %208

85:                                               ; preds = %78
  br label %198

86:                                               ; preds = %76
  %87 = load i32, ptr %10, align 4, !tbaa !6
  %88 = icmp ne i32 %87, 0
  br i1 %88, label %89, label %90

89:                                               ; preds = %86
  call void @ERR_put_error(i32 noundef 12, i32 noundef 0, i32 noundef 164, ptr noundef @.str, i32 noundef 874)
  br label %208

90:                                               ; preds = %86
  %91 = load ptr, ptr %8, align 8, !tbaa !12
  store ptr inttoptr (i64 1 to ptr), ptr %91, align 8, !tbaa !19
  br label %198

92:                                               ; preds = %76
  %93 = load i32, ptr %10, align 4, !tbaa !6
  %94 = icmp ne i32 %93, 1
  br i1 %94, label %95, label %96

95:                                               ; preds = %92
  call void @ERR_put_error(i32 noundef 12, i32 noundef 0, i32 noundef 106, ptr noundef @.str, i32 noundef 882)
  br label %208

96:                                               ; preds = %92
  call void @llvm.lifetime.start.p0(i64 8, ptr %21) #6
  %97 = load ptr, ptr %8, align 8, !tbaa !12
  store ptr %97, ptr %21, align 8, !tbaa !65
  %98 = load ptr, ptr %9, align 8, !tbaa !33
  %99 = load i8, ptr %98, align 1, !tbaa !23
  %100 = zext i8 %99 to i32
  %101 = load ptr, ptr %21, align 8, !tbaa !65
  store i32 %100, ptr %101, align 4, !tbaa !6
  call void @llvm.lifetime.end.p0(i64 8, ptr %21) #6
  br label %102

102:                                              ; preds = %96
  br label %198

103:                                              ; preds = %76
  %104 = load ptr, ptr %8, align 8, !tbaa !12
  %105 = load i32, ptr %10, align 4, !tbaa !6
  %106 = sext i32 %105 to i64
  %107 = call ptr @c2i_ASN1_BIT_STRING(ptr noundef %104, ptr noundef %9, i64 noundef %106)
  %108 = icmp ne ptr %107, null
  br i1 %108, label %110, label %109

109:                                              ; preds = %103
  br label %208

110:                                              ; preds = %103
  br label %198

111:                                              ; preds = %76, %76, %76, %76
  %112 = load ptr, ptr %8, align 8, !tbaa !12
  store ptr %112, ptr %19, align 8, !tbaa !80
  %113 = load ptr, ptr %19, align 8, !tbaa !80
  %114 = load i32, ptr %10, align 4, !tbaa !6
  %115 = sext i32 %114 to i64
  %116 = call ptr @c2i_ASN1_INTEGER(ptr noundef %113, ptr noundef %9, i64 noundef %115)
  %117 = icmp ne ptr %116, null
  br i1 %117, label %119, label %118

118:                                              ; preds = %111
  br label %208

119:                                              ; preds = %111
  %120 = load i32, ptr %11, align 4, !tbaa !6
  %121 = load ptr, ptr %19, align 8, !tbaa !80
  %122 = load ptr, ptr %121, align 8, !tbaa !82
  %123 = getelementptr inbounds nuw %struct.asn1_string_st, ptr %122, i32 0, i32 1
  %124 = load i32, ptr %123, align 4, !tbaa !84
  %125 = and i32 %124, 256
  %126 = or i32 %120, %125
  %127 = load ptr, ptr %19, align 8, !tbaa !80
  %128 = load ptr, ptr %127, align 8, !tbaa !82
  %129 = getelementptr inbounds nuw %struct.asn1_string_st, ptr %128, i32 0, i32 1
  store i32 %126, ptr %129, align 4, !tbaa !84
  br label %198

130:                                              ; preds = %76, %76, %76, %76, %76, %76, %76, %76, %76, %76, %76, %76, %76, %76, %76, %76, %76
  br label %131

131:                                              ; preds = %76, %130
  %132 = load i32, ptr %11, align 4, !tbaa !6
  %133 = icmp eq i32 %132, 30
  br i1 %133, label %134, label %139

134:                                              ; preds = %131
  %135 = load i32, ptr %10, align 4, !tbaa !6
  %136 = and i32 %135, 1
  %137 = icmp ne i32 %136, 0
  br i1 %137, label %138, label %139

138:                                              ; preds = %134
  call void @ERR_put_error(i32 noundef 12, i32 noundef 0, i32 noundef 104, ptr noundef @.str, i32 noundef 926)
  br label %208

139:                                              ; preds = %134, %131
  %140 = load i32, ptr %11, align 4, !tbaa !6
  %141 = icmp eq i32 %140, 28
  br i1 %141, label %142, label %147

142:                                              ; preds = %139
  %143 = load i32, ptr %10, align 4, !tbaa !6
  %144 = and i32 %143, 3
  %145 = icmp ne i32 %144, 0
  br i1 %145, label %146, label %147

146:                                              ; preds = %142
  call void @ERR_put_error(i32 noundef 12, i32 noundef 0, i32 noundef 181, ptr noundef @.str, i32 noundef 930)
  br label %208

147:                                              ; preds = %142, %139
  %148 = load ptr, ptr %8, align 8, !tbaa !12
  %149 = load ptr, ptr %148, align 8, !tbaa !19
  %150 = icmp ne ptr %149, null
  br i1 %150, label %160, label %151

151:                                              ; preds = %147
  %152 = load i32, ptr %11, align 4, !tbaa !6
  %153 = call ptr @ASN1_STRING_type_new(i32 noundef %152)
  store ptr %153, ptr %15, align 8, !tbaa !82
  %154 = load ptr, ptr %15, align 8, !tbaa !82
  %155 = icmp ne ptr %154, null
  br i1 %155, label %157, label %156

156:                                              ; preds = %151
  call void @ERR_put_error(i32 noundef 12, i32 noundef 0, i32 noundef 65, ptr noundef @.str, i32 noundef 937)
  br label %208

157:                                              ; preds = %151
  %158 = load ptr, ptr %15, align 8, !tbaa !82
  %159 = load ptr, ptr %8, align 8, !tbaa !12
  store ptr %158, ptr %159, align 8, !tbaa !19
  br label %166

160:                                              ; preds = %147
  %161 = load ptr, ptr %8, align 8, !tbaa !12
  %162 = load ptr, ptr %161, align 8, !tbaa !19
  store ptr %162, ptr %15, align 8, !tbaa !82
  %163 = load i32, ptr %11, align 4, !tbaa !6
  %164 = load ptr, ptr %15, align 8, !tbaa !82
  %165 = getelementptr inbounds nuw %struct.asn1_string_st, ptr %164, i32 0, i32 1
  store i32 %163, ptr %165, align 4, !tbaa !84
  br label %166

166:                                              ; preds = %160, %157
  %167 = load ptr, ptr %12, align 8, !tbaa !33
  %168 = load i8, ptr %167, align 1, !tbaa !23
  %169 = icmp ne i8 %168, 0
  br i1 %169, label %170, label %187

170:                                              ; preds = %166
  %171 = load ptr, ptr %15, align 8, !tbaa !82
  %172 = getelementptr inbounds nuw %struct.asn1_string_st, ptr %171, i32 0, i32 2
  %173 = load ptr, ptr %172, align 8, !tbaa !86
  %174 = icmp ne ptr %173, null
  br i1 %174, label %175, label %179

175:                                              ; preds = %170
  %176 = load ptr, ptr %15, align 8, !tbaa !82
  %177 = getelementptr inbounds nuw %struct.asn1_string_st, ptr %176, i32 0, i32 2
  %178 = load ptr, ptr %177, align 8, !tbaa !86
  call void @free(ptr noundef %178) #6
  br label %179

179:                                              ; preds = %175, %170
  %180 = load ptr, ptr %9, align 8, !tbaa !33
  %181 = load ptr, ptr %15, align 8, !tbaa !82
  %182 = getelementptr inbounds nuw %struct.asn1_string_st, ptr %181, i32 0, i32 2
  store ptr %180, ptr %182, align 8, !tbaa !86
  %183 = load i32, ptr %10, align 4, !tbaa !6
  %184 = load ptr, ptr %15, align 8, !tbaa !82
  %185 = getelementptr inbounds nuw %struct.asn1_string_st, ptr %184, i32 0, i32 0
  store i32 %183, ptr %185, align 8, !tbaa !87
  %186 = load ptr, ptr %12, align 8, !tbaa !33
  store i8 0, ptr %186, align 1, !tbaa !23
  br label %197

187:                                              ; preds = %166
  %188 = load ptr, ptr %15, align 8, !tbaa !82
  %189 = load ptr, ptr %9, align 8, !tbaa !33
  %190 = load i32, ptr %10, align 4, !tbaa !6
  %191 = call i32 @ASN1_STRING_set(ptr noundef %188, ptr noundef %189, i32 noundef %190)
  %192 = icmp ne i32 %191, 0
  br i1 %192, label %196, label %193

193:                                              ; preds = %187
  call void @ERR_put_error(i32 noundef 12, i32 noundef 0, i32 noundef 65, ptr noundef @.str, i32 noundef 954)
  %194 = load ptr, ptr %15, align 8, !tbaa !82
  call void @ASN1_STRING_free(ptr noundef %194)
  %195 = load ptr, ptr %8, align 8, !tbaa !12
  store ptr null, ptr %195, align 8, !tbaa !19
  br label %208

196:                                              ; preds = %187
  br label %197

197:                                              ; preds = %196, %179
  br label %198

198:                                              ; preds = %197, %119, %110, %102, %90, %85
  %199 = load ptr, ptr %16, align 8, !tbaa !72
  %200 = icmp ne ptr %199, null
  br i1 %200, label %201, label %207

201:                                              ; preds = %198
  %202 = load i32, ptr %11, align 4, !tbaa !6
  %203 = icmp eq i32 %202, 5
  br i1 %203, label %204, label %207

204:                                              ; preds = %201
  %205 = load ptr, ptr %16, align 8, !tbaa !72
  %206 = getelementptr inbounds nuw %struct.asn1_type_st, ptr %205, i32 0, i32 1
  store ptr null, ptr %206, align 8, !tbaa !23
  br label %207

207:                                              ; preds = %204, %201, %198
  store i32 1, ptr %17, align 4, !tbaa !6
  br label %208

208:                                              ; preds = %207, %193, %156, %146, %138, %118, %109, %95, %89, %84, %56
  %209 = load i32, ptr %17, align 4, !tbaa !6
  %210 = icmp ne i32 %209, 0
  br i1 %210, label %218, label %211

211:                                              ; preds = %208
  %212 = load ptr, ptr %16, align 8, !tbaa !72
  call void @ASN1_TYPE_free(ptr noundef %212)
  %213 = load ptr, ptr %14, align 8, !tbaa !12
  %214 = icmp ne ptr %213, null
  br i1 %214, label %215, label %217

215:                                              ; preds = %211
  %216 = load ptr, ptr %14, align 8, !tbaa !12
  store ptr null, ptr %216, align 8, !tbaa !19
  br label %217

217:                                              ; preds = %215, %211
  br label %218

218:                                              ; preds = %217, %208
  %219 = load i32, ptr %17, align 4, !tbaa !6
  store i32 %219, ptr %7, align 4
  store i32 1, ptr %20, align 4
  br label %220

220:                                              ; preds = %218, %32
  call void @llvm.lifetime.end.p0(i64 8, ptr %19) #6
  call void @llvm.lifetime.end.p0(i64 8, ptr %18) #6
  call void @llvm.lifetime.end.p0(i64 4, ptr %17) #6
  call void @llvm.lifetime.end.p0(i64 8, ptr %16) #6
  call void @llvm.lifetime.end.p0(i64 8, ptr %15) #6
  call void @llvm.lifetime.end.p0(i64 8, ptr %14) #6
  %221 = load i32, ptr %7, align 4
  ret i32 %221
}