; Function Attrs: nounwind uwtable
define hidden i32 @asn1_ex_c2i(ptr noundef %0, ptr noundef %1, i32 noundef %2, i32 noundef %3, ptr noundef %4, ptr noundef %5) local_unnamed_addr #1 {
  %7 = alloca ptr, align 8
  store ptr %1, ptr %7, align 8, !tbaa !20
  %8 = getelementptr inbounds nuw i8, ptr %5, i64 32
  %9 = load ptr, ptr %8, align 8, !tbaa !16
  %.not = icmp eq ptr %9, null
  br i1 %.not, label %15, label %10

10:                                               ; preds = %6
  %11 = getelementptr inbounds nuw i8, ptr %9, i64 40
  %12 = load ptr, ptr %11, align 8, !tbaa !54
  %.not84 = icmp eq ptr %12, null
  br i1 %.not84, label %15, label %13

13:                                               ; preds = %10
  %14 = tail call i32 %12(ptr noundef %0, ptr noundef %1, i32 noundef %2, i32 noundef %3, ptr noundef %4, ptr noundef nonnull %5) #7
  br label %.thread

15:                                               ; preds = %10, %6
  %16 = getelementptr inbounds nuw i8, ptr %5, i64 8
  %17 = load i64, ptr %16, align 8, !tbaa !27
  %18 = icmp eq i64 %17, -4
  br i1 %18, label %19, label %30

19:                                               ; preds = %15
  %20 = load ptr, ptr %0, align 8, !tbaa !10
  %.not85 = icmp eq ptr %20, null
  br i1 %.not85, label %21, label %25

21:                                               ; preds = %19
  %22 = tail call ptr @ASN1_TYPE_new() #7
  %23 = icmp eq ptr %22, null
  br i1 %23, label %.thread112, label %24

.thread112:                                       ; preds = %21
  tail call void @ASN1_TYPE_free(ptr noundef null) #7
  br label %.thread

24:                                               ; preds = %21
  store ptr %22, ptr %0, align 8, !tbaa !10
  br label %25

25:                                               ; preds = %19, %24
  %.2 = phi ptr [ %22, %24 ], [ %20, %19 ]
  %26 = load i32, ptr %.2, align 8, !tbaa !56
  %.not86 = icmp eq i32 %3, %26
  br i1 %.not86, label %28, label %27

27:                                               ; preds = %25
  tail call void @ASN1_TYPE_set(ptr noundef nonnull %.2, i32 noundef %3, ptr noundef null) #7
  br label %28

28:                                               ; preds = %27, %25
  %29 = getelementptr inbounds nuw i8, ptr %.2, i64 8
  br label %30

30:                                               ; preds = %28, %15
  %.072 = phi ptr [ %.2, %28 ], [ null, %15 ]
  %.070 = phi ptr [ %0, %28 ], [ null, %15 ]
  %.069 = phi ptr [ %29, %28 ], [ %0, %15 ]
  switch i32 %3, label %59 [
    i32 6, label %31
    i32 5, label %34
    i32 1, label %37
    i32 3, label %42
    i32 2, label %45
    i32 258, label %45
    i32 10, label %45
    i32 266, label %45
    i32 30, label %54
    i32 28, label %57
  ]

31:                                               ; preds = %30
  %32 = sext i32 %2 to i64
  %33 = call ptr @c2i_ASN1_OBJECT(ptr noundef %.069, ptr noundef nonnull %7, i64 noundef %32) #7
  %.not91 = icmp eq ptr %33, null
  br i1 %.not91, label %82, label %.thread

34:                                               ; preds = %30
  %.not90 = icmp eq i32 %2, 0
  br i1 %.not90, label %36, label %35

35:                                               ; preds = %34
  tail call void @ERR_put_error(i32 noundef 12, i32 noundef 0, i32 noundef 164, ptr noundef nonnull @.str, i32 noundef 874) #7
  br label %82

36:                                               ; preds = %34
  store ptr inttoptr (i64 1 to ptr), ptr %.069, align 8, !tbaa !10
  br label %77

37:                                               ; preds = %30
  %.not89 = icmp eq i32 %2, 1
  br i1 %.not89, label %39, label %38

38:                                               ; preds = %37
  tail call void @ERR_put_error(i32 noundef 12, i32 noundef 0, i32 noundef 106, ptr noundef nonnull @.str, i32 noundef 882) #7
  br label %82

39:                                               ; preds = %37
  %40 = load i8, ptr %1, align 1, !tbaa !25
  %41 = zext i8 %40 to i32
  store i32 %41, ptr %.069, align 4, !tbaa !26
  br label %.thread

42:                                               ; preds = %30
  %43 = sext i32 %2 to i64
  %44 = call ptr @c2i_ASN1_BIT_STRING(ptr noundef %.069, ptr noundef nonnull %7, i64 noundef %43) #7
  %.not88 = icmp eq ptr %44, null
  br i1 %.not88, label %82, label %.thread

45:                                               ; preds = %30, %30, %30, %30
  %46 = sext i32 %2 to i64
  %47 = call ptr @c2i_ASN1_INTEGER(ptr noundef %.069, ptr noundef nonnull %7, i64 noundef %46) #7
  %.not87 = icmp eq ptr %47, null
  br i1 %.not87, label %82, label %48

48:                                               ; preds = %45
  %49 = load ptr, ptr %.069, align 8, !tbaa !58
  %50 = getelementptr inbounds nuw i8, ptr %49, i64 4
  %51 = load i32, ptr %50, align 4, !tbaa !60
  %52 = and i32 %51, 256
  %53 = or i32 %52, %3
  store i32 %53, ptr %50, align 4, !tbaa !60
  br label %77

54:                                               ; preds = %30
  %55 = and i32 %2, 1
  %.not92 = icmp eq i32 %55, 0
  br i1 %.not92, label %59, label %56

56:                                               ; preds = %54
  tail call void @ERR_put_error(i32 noundef 12, i32 noundef 0, i32 noundef 104, ptr noundef nonnull @.str, i32 noundef 926) #7
  br label %82

57:                                               ; preds = %30
  %.old = and i32 %2, 3
  %.not93.old = icmp eq i32 %.old, 0
  br i1 %.not93.old, label %59, label %58

58:                                               ; preds = %57
  tail call void @ERR_put_error(i32 noundef 12, i32 noundef 0, i32 noundef 181, ptr noundef nonnull @.str, i32 noundef 930) #7
  br label %82

59:                                               ; preds = %54, %30, %57
  %60 = load ptr, ptr %.069, align 8, !tbaa !10
  %.not94 = icmp eq ptr %60, null
  br i1 %.not94, label %61, label %65

61:                                               ; preds = %59
  %62 = tail call ptr @ASN1_STRING_type_new(i32 noundef %3) #7
  %.not95 = icmp eq ptr %62, null
  br i1 %.not95, label %63, label %64

63:                                               ; preds = %61
  tail call void @ERR_put_error(i32 noundef 12, i32 noundef 0, i32 noundef 65, ptr noundef nonnull @.str, i32 noundef 937) #7
  br label %82

64:                                               ; preds = %61
  store ptr %62, ptr %.069, align 8, !tbaa !10
  br label %67

65:                                               ; preds = %59
  %66 = getelementptr inbounds nuw i8, ptr %60, i64 4
  store i32 %3, ptr %66, align 4, !tbaa !60
  br label %67

67:                                               ; preds = %65, %64
  %.074 = phi ptr [ %60, %65 ], [ %62, %64 ]
  %68 = load i8, ptr %4, align 1, !tbaa !25
  %.not96 = icmp eq i8 %68, 0
  br i1 %.not96, label %74, label %69

69:                                               ; preds = %67
  %70 = getelementptr inbounds nuw i8, ptr %.074, i64 8
  %71 = load ptr, ptr %70, align 8, !tbaa !62
  %.not98 = icmp eq ptr %71, null
  br i1 %.not98, label %73, label %72

72:                                               ; preds = %69
  tail call void @free(ptr noundef nonnull %71) #7
  br label %73

73:                                               ; preds = %72, %69
  store ptr %1, ptr %70, align 8, !tbaa !62
  store i32 %2, ptr %.074, align 8, !tbaa !63
  store i8 0, ptr %4, align 1, !tbaa !25
  br label %.thread

74:                                               ; preds = %67
  %75 = tail call i32 @ASN1_STRING_set(ptr noundef nonnull %.074, ptr noundef %1, i32 noundef %2) #7
  %.not97 = icmp eq i32 %75, 0
  br i1 %.not97, label %76, label %.thread

76:                                               ; preds = %74
  tail call void @ERR_put_error(i32 noundef 12, i32 noundef 0, i32 noundef 65, ptr noundef nonnull @.str, i32 noundef 954) #7
  tail call void @ASN1_STRING_free(ptr noundef nonnull %.074) #7
  store ptr null, ptr %.069, align 8, !tbaa !10
  br label %82

77:                                               ; preds = %48, %36
  %78 = icmp ne ptr %.072, null
  %79 = icmp eq i32 %3, 5
  %or.cond = and i1 %79, %78
  br i1 %or.cond, label %80, label %.thread

80:                                               ; preds = %77
  %81 = getelementptr inbounds nuw i8, ptr %.072, i64 8
  store ptr null, ptr %81, align 8, !tbaa !25
  br label %.thread

82:                                               ; preds = %56, %58, %76, %63, %45, %42, %38, %35, %31
  call void @ASN1_TYPE_free(ptr noundef %.072) #7
  %.not100 = icmp eq ptr %.070, null
  br i1 %.not100, label %.thread, label %83

83:                                               ; preds = %82
  store ptr null, ptr %.070, align 8, !tbaa !10
  br label %.thread

.thread:                                          ; preds = %39, %31, %42, %74, %73, %.thread112, %80, %77, %83, %82, %13
  %.0 = phi i32 [ %14, %13 ], [ 0, %82 ], [ 0, %83 ], [ 1, %80 ], [ 1, %77 ], [ 0, %.thread112 ], [ 1, %73 ], [ 1, %74 ], [ 1, %42 ], [ 1, %31 ], [ 1, %39 ]
  ret i32 %.0
}